target datalayout = "e-m:e-p270:32:32-p271:32:32-p272:64:64-i64:64-i128:128-f80:128-n8:16:32:64-S128"
target triple = "x86_64-pc-linux-gnu"

%struct.H5O_shared_t = type { i32, ptr, i32, %union.anon }
%union.anon = type { %struct.H5O_mesg_loc_t }
%struct.H5O_mesg_loc_t = type { i32, i64 }
%struct.H5O_fill_t = type { %struct.H5O_shared_t, i32, ptr, i64, ptr, i32, i32, i8 }

@H5E_OHDR_g = external global i64, align 8
@.str.10 = private unnamed_addr constant [103 x i8] c"generated/home/dtcxzyw/WorkSpace/Projects/compilers/llvm-opt-benchmark/bench/hdf5/hdf5/src/H5Oshared.h\00", align 1
@__func__.H5O__fill_shared_encode = private unnamed_addr constant [24 x i8] c"H5O__fill_shared_encode\00", align 1
@H5E_CANTENCODE_g = external global i64, align 8
@.str.19 = private unnamed_addr constant [32 x i8] c"unable to encode shared message\00", align 1
@.str.20 = private unnamed_addr constant [32 x i8] c"unable to encode native message\00", align 1

; Function Attrs: nounwind uwtable
define internal i32 @H5O__fill_old_encode(ptr noundef %0, ptr noundef %1, ptr noundef %2) #0 {
  %4 = alloca ptr, align 8
  %5 = alloca ptr, align 8
  %6 = alloca ptr, align 8
  %7 = alloca ptr, align 8
  store ptr %0, ptr %4, align 8
  store ptr %1, ptr %5, align 8
  store ptr %2, ptr %6, align 8
  %8 = load ptr, ptr %6, align 8
  store ptr %8, ptr %7, align 8
  br label %9

9:                                                ; preds = %3
  %10 = load ptr, ptr %7, align 8
  %11 = getelementptr inbounds %struct.H5O_fill_t, ptr %10, i32 0, i32 3
  %12 = load i64, ptr %11, align 8
  %13 = and i64 %12, 255
  %14 = trunc i64 %13 to i8
  %15 = load ptr, ptr %5, align 8
  store i8 %14, ptr %15, align 1
  %16 = load ptr, ptr %5, align 8
  %17 = getelementptr inbounds i8, ptr %16, i32 1
  store ptr %17, ptr %5, align 8
  %18 = load ptr, ptr %7, align 8
  %19 = getelementptr inbounds %struct.H5O_fill_t, ptr %18, i32 0, i32 3
  %20 = load i64, ptr %19, align 8
  %21 = ashr i64 %20, 8
  %22 = and i64 %21, 255
  %23 = trunc i64 %22 to i8
  %24 = load ptr, ptr %5, align 8
  store i8 %23, ptr %24, align 1
  %25 = load ptr, ptr %5, align 8
  %26 = getelementptr inbounds i8, ptr %25, i32 1
  store ptr %26, ptr %5, align 8
  %27 = load ptr, ptr %7, align 8
  %28 = getelementptr inbounds %struct.H5O_fill_t, ptr %27, i32 0, i32 3
  %29 = load i64, ptr %28, align 8
  %30 = ashr i64 %29, 16
  %31 = and i64 %30, 255
  %32 = trunc i64 %31 to i8
  %33 = load ptr, ptr %5, align 8
  store i8 %32, ptr %33, align 1
  %34 = load ptr, ptr %5, align 8
  %35 = getelementptr inbounds i8, ptr %34, i32 1
  store ptr %35, ptr %5, align 8
  %36 = load ptr, ptr %7, align 8
  %37 = getelementptr inbounds %struct.H5O_fill_t, ptr %36, i32 0, i32 3
  %38 = load i64, ptr %37, align 8
  %39 = ashr i64 %38, 24
  %40 = and i64 %39, 255
  %41 = trunc i64 %40 to i8
  %42 = load ptr, ptr %5, align 8
  store i8 %41, ptr %42, align 1
  %43 = load ptr, ptr %5, align 8
  %44 = getelementptr inbounds i8, ptr %43, i32 1
  store ptr %44, ptr %5, align 8
  br label %45

45:                                               ; preds = %9
  %46 = load ptr, ptr %7, align 8
  %47 = getelementptr inbounds %struct.H5O_fill_t, ptr %46, i32 0, i32 4
  %48 = load ptr, ptr %47, align 8
  %49 = icmp ne ptr %48, null
  br i1 %49, label %50, label %58

50:                                               ; preds = %45
  %51 = load ptr, ptr %5, align 8
  %52 = load ptr, ptr %7, align 8
  %53 = getelementptr inbounds %struct.H5O_fill_t, ptr %52, i32 0, i32 4
  %54 = load ptr, ptr %53, align 8
  %55 = load ptr, ptr %7, align 8
  %56 = getelementptr inbounds %struct.H5O_fill_t, ptr %55, i32 0, i32 3
  %57 = load i64, ptr %56, align 8
  call void @llvm.memcpy.p0.p0.i64(ptr align 1 %51, ptr align 1 %54, i64 %57, i1 false)
  br label %58

58:                                               ; preds = %50, %45
  ret i32 0
}

; Function Attrs: nounwind uwtable
define internal i32 @H5O__fill_shared_encode(ptr noundef %0, i1 noundef zeroext %1, i64 noundef %2, ptr noundef %3, ptr noundef %4) #0 {
  %6 = alloca ptr, align 8
  %7 = alloca i8, align 1
  %8 = alloca i64, align 8
  %9 = alloca ptr, align 8
  %10 = alloca ptr, align 8
  %11 = alloca ptr, align 8
  %12 = alloca i32, align 4
  %13 = alloca i8, align 1
  store ptr %0, ptr %6, align 8
  %14 = zext i1 %1 to i8
  store i8 %14, ptr %7, align 1
  store i64 %2, ptr %8, align 8
  store ptr %3, ptr %9, align 8
  store ptr %4, ptr %10, align 8
  %15 = load ptr, ptr %10, align 8
  store ptr %15, ptr %11, align 8
  store i32 0, ptr %12, align 4
  store i8 0, ptr %13, align 1
  %16 = load ptr, ptr %11, align 8
  %17 = getelementptr inbounds %struct.H5O_shared_t, ptr %16, i32 0, i32 0
  %18 = load i32, ptr %17, align 8
  %19 = icmp eq i32 %18, 1
  br i1 %19, label %25, label %20

20:                                               ; preds = %5
  %21 = load ptr, ptr %11, align 8
  %22 = getelementptr inbounds %struct.H5O_shared_t, ptr %21, i32 0, i32 0
  %23 = load i32, ptr %22, align 8
  %24 = icmp eq i32 %23, 2
  br i1 %24, label %25, label %26

25:                                               ; preds = %20, %5
  br i1 true, label %27, label %52

26:                                               ; preds = %20
  br i1 false, label %27, label %52

27:                                               ; preds = %26, %25
  %28 = load i8, ptr %7, align 1
  %29 = trunc i8 %28 to i1
  br i1 %29, label %52, label %30

30:                                               ; preds = %27
  %31 = load ptr, ptr %6, align 8
  %32 = load ptr, ptr %9, align 8
  %33 = load ptr, ptr %11, align 8
  %34 = call i32 @H5O__shared_encode(ptr noundef %31, ptr noundef %32, ptr noundef %33)
  %35 = icmp slt i32 %34, 0
  br i1 %35, label %36, label %51

36:                                               ; preds = %30
  br label %37

37:                                               ; preds = %36
  br label %38

38:                                               ; preds = %37
  br label %39

39:                                               ; preds = %38
  %40 = load i64, ptr @H5E_OHDR_g, align 8
  %41 = load i64, ptr @H5E_CANTENCODE_g, align 8
  %42 = call i32 (ptr, ptr, i32, i64, i64, ptr, ...) @H5E_printf_stack(ptr noundef @.str.10, ptr noundef @__func__.H5O__fill_shared_encode, i32 noundef 119, i64 noundef %40, i64 noundef %41, ptr noundef @.str.19)
  br label %43

43:                                               ; preds = %39
  store i8 1, ptr %13, align 1
  %44 = load i8, ptr %13, align 1
  %45 = trunc i8 %44 to i1
  %46 = zext i1 %45 to i8
  store i8 %46, ptr %13, align 1
  br label %47

47:                                               ; preds = %43
  br label %48

48:                                               ; preds = %47
  store i32 -1, ptr %12, align 4
  br label %75

49:                                               ; No predecessors!
  br label %50

50:                                               ; preds = %49
  br label %51

51:                                               ; preds = %50, %30
  br label %74

52:                                               ; preds = %27, %26, %25
  %53 = load ptr, ptr %6, align 8
  %54 = load ptr, ptr %9, align 8
  %55 = load ptr, ptr %10, align 8
  %56 = call i32 @H5O__fill_old_encode(ptr noundef %53, ptr noundef %54, ptr noundef %55)
  %57 = icmp slt i32 %56, 0
  br i1 %57, label %58, label %73

58:                                               ; preds = %52
  br label %59

59:                                               ; preds = %58
  br label %60

60:                                               ; preds = %59
  br label %61

61:                                               ; preds = %60
  %62 = load i64, ptr @H5E_OHDR_g, align 8
  %63 = load i64, ptr @H5E_CANTENCODE_g, align 8
  %64 = call i32 (ptr, ptr, i32, i64, i64, ptr, ...) @H5E_printf_stack(ptr noundef @.str.10, ptr noundef @__func__.H5O__fill_shared_encode, i32 noundef 124, i64 noundef %62, i64 noundef %63, ptr noundef @.str.20)
  br label %65

65:                                               ; preds = %61
  store i8 1, ptr %13, align 1
  %66 = load i8, ptr %13, align 1
  %67 = trunc i8 %66 to i1
  %68 = zext i1 %67 to i8
  store i8 %68, ptr %13, align 1
  br label %69

69:                                               ; preds = %65
  br label %70

70:                                               ; preds = %69
  store i32 -1, ptr %12, align 4
  br label %75

71:                                               ; No predecessors!
  br label %72

72:                                               ; preds = %71
  br label %73

73:                                               ; preds = %72, %52
  br label %74

74:                                               ; preds = %73, %51
  br label %75

75:                                               ; preds = %74, %70, %48
  %76 = load i32, ptr %12, align 4
  ret i32 %76
}