; Function Attrs: nounwind uwtable
define internal range(i32 -1, 1) i32 @H5O__fill_shared_encode(ptr noundef %0, i1 noundef zeroext %1, i64 %2, ptr noundef %3, ptr noundef %4) #0 {
  %6 = load i32, ptr %4, align 8
  %7 = add i32 %6, -3
  %switch = icmp ult i32 %7, -2
  %brmerge = or i1 %switch, %1
  br i1 %brmerge, label %15, label %8

8:                                                ; preds = %5
  %9 = tail call i32 @H5O__shared_encode(ptr noundef %0, ptr noundef %3, ptr noundef nonnull %4) #8
  %10 = icmp slt i32 %9, 0
  br i1 %10, label %11, label %H5O__fill_old_encode.exit

11:                                               ; preds = %8
  %12 = load i64, ptr @H5E_OHDR_g, align 8
  %13 = load i64, ptr @H5E_CANTENCODE_g, align 8
  %14 = tail call i32 (ptr, ptr, i32, i64, i64, ptr, ...) @H5E_printf_stack(ptr noundef nonnull @.str.10, ptr noundef nonnull @__func__.H5O__fill_shared_encode, i32 noundef 119, i64 noundef %12, i64 noundef %13, ptr noundef nonnull @.str.19) #8
  br label %H5O__fill_old_encode.exit

15:                                               ; preds = %5
  %16 = getelementptr inbounds i8, ptr %4, i64 56
  %17 = load i64, ptr %16, align 8
  %18 = trunc i64 %17 to i8
  store i8 %18, ptr %3, align 1
  %19 = getelementptr inbounds i8, ptr %3, i64 1
  %20 = load i64, ptr %16, align 8
  %21 = lshr i64 %20, 8
  %22 = trunc i64 %21 to i8
  store i8 %22, ptr %19, align 1
  %23 = getelementptr inbounds i8, ptr %3, i64 2
  %24 = load i64, ptr %16, align 8
  %25 = lshr i64 %24, 16
  %26 = trunc i64 %25 to i8
  store i8 %26, ptr %23, align 1
  %27 = getelementptr inbounds i8, ptr %3, i64 3
  %28 = load i64, ptr %16, align 8
  %29 = lshr i64 %28, 24
  %30 = trunc i64 %29 to i8
  store i8 %30, ptr %27, align 1
  %31 = getelementptr inbounds i8, ptr %4, i64 64
  %32 = load ptr, ptr %31, align 8
  %.not.i = icmp eq ptr %32, null
  br i1 %.not.i, label %H5O__fill_old_encode.exit, label %33

33:                                               ; preds = %15
  %34 = getelementptr inbounds i8, ptr %3, i64 4
  %35 = load i64, ptr %16, align 8
  tail call void @llvm.memcpy.p0.p0.i64(ptr nonnull writeonly align 1 %34, ptr nonnull align 1 %32, i64 %35, i1 false)
  br label %H5O__fill_old_encode.exit

H5O__fill_old_encode.exit:                        ; preds = %33, %15, %8, %11
  %.0 = phi i32 [ -1, %11 ], [ 0, %8 ], [ 0, %15 ], [ 0, %33 ]
  ret i32 %.0
}